target datalayout = "e-m:e-p270:32:32-p271:32:32-p272:64:64-i64:64-i128:128-f80:128-n8:16:32:64-S128"
target triple = "x86_64-pc-linux-gnu"

%struct._asn1_ctx_t = type { i32, i32, i8, ptr, ptr, ptr, ptr, ptr, %struct.anon, %struct.anon.2, %struct.anon.3, ptr }
%struct.anon = type { i32, i8, i8, i8, ptr, ptr, i32, i32, ptr, ptr, ptr, %union.anon }
%union.anon = type { %struct.anon.0 }
%struct.anon.0 = type { ptr }
%struct.anon.2 = type { ptr, ptr, ptr }
%struct.anon.3 = type { i32, i8, ptr, i32, i32, ptr, ptr, ptr, %union.anon.4 }
%union.anon.4 = type { %struct.anon.5 }
%struct.anon.5 = type { ptr }
%struct._packet_info = type { ptr, ptr, i32, i32, %struct.nstime_t, %struct.nstime_t, %struct.nstime_t, i8, ptr, ptr, ptr, ptr, %struct._address, %struct._address, %struct._address, %struct._address, %struct._address, %struct._address, i32, ptr, i8, [3 x i8], %struct.anon.7, i32, i32, i32, i32, ptr, i8, ptr, ptr, i16, i16, i32, i32, i16, i32, i32, ptr, ptr, ptr, i8, i8, i16, i16, i16, i32, i16, i16, ptr, ptr, ptr, ptr, ptr, i32, i32 }
%struct.nstime_t = type { i64, i32 }
%struct._address = type { i32, i32, ptr, ptr }
%struct.anon.7 = type { i8, [3 x i8] }
%struct.ngap_private_data = type { ptr, i32, i32, i32, i32, i32, i8, i8, i8, ptr, ptr, i32, i32, i8, ptr }
%struct.ngap_conv_info = type { %struct._address, i32, i32, %struct._address, i32, i32, ptr, ptr }
%struct.ngap_supported_ta = type { i32, ptr }

@proto_ngap = internal global i32 0, align 4
@hf_ngap_RAT_Information_PDU = internal global i32 0, align 4

; Function Attrs: null_pointer_is_valid sspstrong uwtable
define internal ptr @ngap_get_private_data(ptr noundef %0) #0 {
  %2 = alloca ptr, align 8
  %3 = alloca ptr, align 8
  store ptr %0, ptr %2, align 8
  call void @llvm.lifetime.start.p0(i64 8, ptr %3) #11
  %4 = load ptr, ptr %2, align 8
  %5 = getelementptr inbounds nuw %struct._packet_info, ptr %4, i32 0, i32 51
  %6 = load ptr, ptr %5, align 8
  %7 = load ptr, ptr %2, align 8
  %8 = load i32, ptr @proto_ngap, align 4
  %9 = call ptr @p_get_proto_data(ptr noundef %6, ptr noundef %7, i32 noundef %8, i32 noundef 0)
  store ptr %9, ptr %3, align 8
  %10 = load ptr, ptr %3, align 8
  %11 = icmp ne ptr %10, null
  br i1 %11, label %27, label %12

12:                                               ; preds = %1
  %13 = load ptr, ptr %2, align 8
  %14 = getelementptr inbounds nuw %struct._packet_info, ptr %13, i32 0, i32 51
  %15 = load ptr, ptr %14, align 8
  %16 = call noalias ptr @wmem_alloc0(ptr noundef %15, i64 noundef 72) #12
  store ptr %16, ptr %3, align 8
  %17 = load ptr, ptr %3, align 8
  %18 = getelementptr inbounds nuw %struct.ngap_private_data, ptr %17, i32 0, i32 5
  store i32 -1, ptr %18, align 8
  %19 = load ptr, ptr %3, align 8
  %20 = getelementptr inbounds nuw %struct.ngap_private_data, ptr %19, i32 0, i32 13
  store i8 -1, ptr %20, align 8
  %21 = load ptr, ptr %2, align 8
  %22 = getelementptr inbounds nuw %struct._packet_info, ptr %21, i32 0, i32 51
  %23 = load ptr, ptr %22, align 8
  %24 = load ptr, ptr %2, align 8
  %25 = load i32, ptr @proto_ngap, align 4
  %26 = load ptr, ptr %3, align 8
  call void @p_add_proto_data(ptr noundef %23, ptr noundef %24, i32 noundef %25, i32 noundef 0, ptr noundef %26)
  br label %27

27:                                               ; preds = %12, %1
  %28 = load ptr, ptr %3, align 8
  call void @llvm.lifetime.end.p0(i64 8, ptr %3) #11
  ret ptr %28
}

; Function Attrs: null_pointer_is_valid sspstrong uwtable
define internal i32 @dissect_ngap_RAT_Information(ptr noundef %0, i32 noundef %1, ptr noundef %2, ptr noundef %3, i32 noundef %4) #0 {
  %6 = alloca ptr, align 8
  %7 = alloca i32, align 4
  %8 = alloca ptr, align 8
  %9 = alloca ptr, align 8
  %10 = alloca i32, align 4
  %11 = alloca i32, align 4
  %12 = alloca ptr, align 8
  %13 = alloca ptr, align 8
  %14 = alloca i32, align 4
  store ptr %0, ptr %6, align 8
  store i32 %1, ptr %7, align 4
  store ptr %2, ptr %8, align 8
  store ptr %3, ptr %9, align 8
  store i32 %4, ptr %10, align 4
  call void @llvm.lifetime.start.p0(i64 4, ptr %11) #11
  store i32 -1, ptr %11, align 4
  call void @llvm.lifetime.start.p0(i64 8, ptr %12) #11
  %15 = load ptr, ptr %8, align 8
  %16 = getelementptr inbounds nuw %struct._asn1_ctx_t, ptr %15, i32 0, i32 3
  %17 = load ptr, ptr %16, align 8
  %18 = call ptr @ngap_get_private_data(ptr noundef %17)
  store ptr %18, ptr %12, align 8
  %19 = load ptr, ptr %6, align 8
  %20 = load i32, ptr %7, align 4
  %21 = load ptr, ptr %8, align 8
  %22 = load ptr, ptr %9, align 8
  %23 = load i32, ptr %10, align 4
  %24 = call i32 @dissect_per_enumerated(ptr noundef %19, i32 noundef %20, ptr noundef %21, ptr noundef %22, i32 noundef %23, i32 noundef 2, ptr noundef %11, i1 noundef zeroext true, i32 noundef 4, ptr noundef null)
  store i32 %24, ptr %7, align 4
  %25 = load ptr, ptr %12, align 8
  %26 = getelementptr inbounds nuw %struct.ngap_private_data, ptr %25, i32 0, i32 0
  %27 = load ptr, ptr %26, align 8
  %28 = icmp ne ptr %27, null
  br i1 %28, label %29, label %78

29:                                               ; preds = %5
  %30 = load ptr, ptr %12, align 8
  %31 = getelementptr inbounds nuw %struct.ngap_private_data, ptr %30, i32 0, i32 9
  %32 = load ptr, ptr %31, align 8
  %33 = icmp ne ptr %32, null
  br i1 %33, label %34, label %78

34:                                               ; preds = %29
  %35 = load i32, ptr %11, align 4
  %36 = icmp eq i32 %35, 1
  br i1 %36, label %37, label %78

37:                                               ; preds = %34
  call void @llvm.lifetime.start.p0(i64 8, ptr %13) #11
  call void @llvm.lifetime.start.p0(i64 4, ptr %14) #11
  store i32 0, ptr %14, align 4
  br label %38

38:                                               ; preds = %74, %37
  %39 = load i32, ptr %14, align 4
  %40 = load ptr, ptr %12, align 8
  %41 = getelementptr inbounds nuw %struct.ngap_private_data, ptr %40, i32 0, i32 9
  %42 = load ptr, ptr %41, align 8
  %43 = getelementptr inbounds nuw %struct.ngap_supported_ta, ptr %42, i32 0, i32 1
  %44 = load ptr, ptr %43, align 8
  %45 = call i32 @wmem_array_get_count(ptr noundef %44)
  %46 = icmp ult i32 %39, %45
  br i1 %46, label %47, label %77

47:                                               ; preds = %38
  %48 = call ptr @wmem_file_scope()
  %49 = call noalias ptr @wmem_alloc(ptr noundef %48, i64 noundef 8) #12
  store ptr %49, ptr %13, align 8
  %50 = load ptr, ptr %12, align 8
  %51 = getelementptr inbounds nuw %struct.ngap_private_data, ptr %50, i32 0, i32 9
  %52 = load ptr, ptr %51, align 8
  %53 = getelementptr inbounds nuw %struct.ngap_supported_ta, ptr %52, i32 0, i32 1
  %54 = load ptr, ptr %53, align 8
  %55 = load i32, ptr %14, align 4
  %56 = call ptr @wmem_array_index(ptr noundef %54, i32 noundef %55)
  %57 = load i32, ptr %56, align 4
  %58 = shl i32 %57, 24
  %59 = load ptr, ptr %12, align 8
  %60 = getelementptr inbounds nuw %struct.ngap_private_data, ptr %59, i32 0, i32 9
  %61 = load ptr, ptr %60, align 8
  %62 = getelementptr inbounds nuw %struct.ngap_supported_ta, ptr %61, i32 0, i32 0
  %63 = load i32, ptr %62, align 8
  %64 = or i32 %58, %63
  %65 = zext i32 %64 to i64
  %66 = load ptr, ptr %13, align 8
  store i64 %65, ptr %66, align 8
  %67 = load ptr, ptr %12, align 8
  %68 = getelementptr inbounds nuw %struct.ngap_private_data, ptr %67, i32 0, i32 0
  %69 = load ptr, ptr %68, align 8
  %70 = getelementptr inbounds nuw %struct.ngap_conv_info, ptr %69, i32 0, i32 6
  %71 = load ptr, ptr %70, align 8
  %72 = load ptr, ptr %13, align 8
  %73 = call ptr @wmem_map_insert(ptr noundef %71, ptr noundef %72, ptr noundef inttoptr (i64 1 to ptr))
  br label %74

74:                                               ; preds = %47
  %75 = load i32, ptr %14, align 4
  %76 = add i32 %75, 1
  store i32 %76, ptr %14, align 4
  br label %38, !llvm.loop !11

77:                                               ; preds = %38
  call void @llvm.lifetime.end.p0(i64 4, ptr %14) #11
  call void @llvm.lifetime.end.p0(i64 8, ptr %13) #11
  br label %78

78:                                               ; preds = %77, %34, %29, %5
  %79 = load i32, ptr %7, align 4
  call void @llvm.lifetime.end.p0(i64 8, ptr %12) #11
  call void @llvm.lifetime.end.p0(i64 4, ptr %11) #11
  ret i32 %79
}

; Function Attrs: null_pointer_is_valid sspstrong uwtable
define internal i32 @dissect_RAT_Information_PDU(ptr noundef %0, ptr noundef %1, ptr noundef %2, ptr noundef %3) #0 {
  %5 = alloca ptr, align 8
  %6 = alloca ptr, align 8
  %7 = alloca ptr, align 8
  %8 = alloca ptr, align 8
  %9 = alloca i32, align 4
  %10 = alloca %struct._asn1_ctx_t, align 8
  store ptr %0, ptr %5, align 8
  store ptr %1, ptr %6, align 8
  store ptr %2, ptr %7, align 8
  store ptr %3, ptr %8, align 8
  call void @llvm.lifetime.start.p0(i64 4, ptr %9) #11
  store i32 0, ptr %9, align 4
  call void @llvm.lifetime.start.p0(i64 208, ptr %10) #11
  %11 = load ptr, ptr %6, align 8
  call void @asn1_ctx_init(ptr noundef %10, i32 noundef 1, i1 noundef zeroext true, ptr noundef %11)
  %12 = load ptr, ptr %5, align 8
  %13 = load i32, ptr %9, align 4
  %14 = load ptr, ptr %7, align 8
  %15 = load i32, ptr @hf_ngap_RAT_Information_PDU, align 4
  %16 = call i32 @dissect_ngap_RAT_Information(ptr noundef %12, i32 noundef %13, ptr noundef %10, ptr noundef %14, i32 noundef %15)
  store i32 %16, ptr %9, align 4
  %17 = load i32, ptr %9, align 4
  %18 = add i32 %17, 7
  store i32 %18, ptr %9, align 4
  %19 = load i32, ptr %9, align 4
  %20 = ashr i32 %19, 3
  store i32 %20, ptr %9, align 4
  %21 = load i32, ptr %9, align 4
  call void @llvm.lifetime.end.p0(i64 208, ptr %10) #11
  call void @llvm.lifetime.end.p0(i64 4, ptr %9) #11
  ret i32 %21
}