; Function Attrs: null_pointer_is_valid sspstrong uwtable
define internal range(i32 -268435456, 268435456) i32 @dissect_RAT_Information_PDU(ptr noundef %0, ptr noundef %1, ptr noundef %2, ptr readnone captures(none) %3) #0 {
  %5 = alloca i32, align 4
  %6 = alloca %struct._asn1_ctx_t, align 8
  call void @llvm.lifetime.start.p0(i64 208, ptr nonnull %6) #12
  call void @asn1_ctx_init(ptr noundef nonnull %6, i32 noundef 1, i1 noundef zeroext true, ptr noundef %1)
  %7 = load i32, ptr @hf_ngap_RAT_Information_PDU, align 4
  call void @llvm.lifetime.start.p0(i64 4, ptr nonnull %5) #12
  store i32 -1, ptr %5, align 4
  %8 = getelementptr inbounds nuw i8, ptr %6, i64 16
  %9 = load ptr, ptr %8, align 8
  %10 = getelementptr inbounds nuw i8, ptr %9, i64 408
  %11 = load ptr, ptr %10, align 8
  %12 = load i32, ptr @proto_ngap, align 4
  %13 = call ptr @p_get_proto_data(ptr noundef %11, ptr noundef %9, i32 noundef %12, i32 noundef 0)
  %.not.i.i = icmp eq ptr %13, null
  br i1 %.not.i.i, label %14, label %ngap_get_private_data.exit.i

14:                                               ; preds = %4
  %15 = load ptr, ptr %10, align 8
  %16 = call noalias dereferenceable_or_null(72) ptr @wmem_alloc0(ptr noundef %15, i64 noundef 72) #13
  %17 = getelementptr inbounds nuw i8, ptr %16, i64 24
  store i32 -1, ptr %17, align 8
  %18 = getelementptr inbounds nuw i8, ptr %16, i64 56
  store i8 -1, ptr %18, align 8
  %19 = load ptr, ptr %10, align 8
  %20 = load i32, ptr @proto_ngap, align 4
  call void @p_add_proto_data(ptr noundef %19, ptr noundef %9, i32 noundef %20, i32 noundef 0, ptr noundef %16)
  br label %ngap_get_private_data.exit.i

ngap_get_private_data.exit.i:                     ; preds = %14, %4
  %.0.i.i = phi ptr [ %13, %4 ], [ %16, %14 ]
  %21 = call i32 @dissect_per_enumerated(ptr noundef %0, i32 noundef 0, ptr noundef nonnull %6, ptr noundef %2, i32 noundef %7, i32 noundef 2, ptr noundef nonnull %5, i1 noundef zeroext true, i32 noundef 4, ptr noundef null)
  %22 = load ptr, ptr %.0.i.i, align 8
  %.not.i = icmp eq ptr %22, null
  br i1 %.not.i, label %dissect_ngap_RAT_Information.exit, label %23

23:                                               ; preds = %ngap_get_private_data.exit.i
  %24 = getelementptr inbounds nuw i8, ptr %.0.i.i, i64 32
  %25 = load ptr, ptr %24, align 8
  %26 = icmp ne ptr %25, null
  %27 = load i32, ptr %5, align 4
  %28 = icmp eq i32 %27, 1
  %or.cond.i = select i1 %26, i1 %28, i1 false
  br i1 %or.cond.i, label %.preheader.i, label %dissect_ngap_RAT_Information.exit

.preheader.i:                                     ; preds = %23
  %29 = getelementptr inbounds nuw i8, ptr %25, i64 8
  %30 = load ptr, ptr %29, align 8
  %31 = call i32 @wmem_array_get_count(ptr noundef %30)
  %.not19.i = icmp eq i32 %31, 0
  br i1 %.not19.i, label %dissect_ngap_RAT_Information.exit, label %.lr.ph.i

.lr.ph.i:                                         ; preds = %.preheader.i, %.lr.ph.i
  %.018.i = phi i32 [ %48, %.lr.ph.i ], [ 0, %.preheader.i ]
  %32 = call ptr @wmem_file_scope()
  %33 = call noalias dereferenceable_or_null(8) ptr @wmem_alloc(ptr noundef %32, i64 noundef 8) #13
  %34 = load ptr, ptr %24, align 8
  %35 = getelementptr inbounds nuw i8, ptr %34, i64 8
  %36 = load ptr, ptr %35, align 8
  %37 = call ptr @wmem_array_index(ptr noundef %36, i32 noundef %.018.i)
  %38 = load i32, ptr %37, align 4
  %39 = shl i32 %38, 24
  %40 = load ptr, ptr %24, align 8
  %41 = load i32, ptr %40, align 8
  %42 = or i32 %41, %39
  %43 = zext i32 %42 to i64
  store i64 %43, ptr %33, align 8
  %44 = load ptr, ptr %.0.i.i, align 8
  %45 = getelementptr inbounds nuw i8, ptr %44, i64 64
  %46 = load ptr, ptr %45, align 8
  %47 = call ptr @wmem_map_insert(ptr noundef %46, ptr noundef %33, ptr noundef nonnull inttoptr (i64 1 to ptr))
  %48 = add nuw i32 %.018.i, 1
  %49 = load ptr, ptr %24, align 8
  %50 = getelementptr inbounds nuw i8, ptr %49, i64 8
  %51 = load ptr, ptr %50, align 8
  %52 = call i32 @wmem_array_get_count(ptr noundef %51)
  %53 = icmp ult i32 %48, %52
  br i1 %53, label %.lr.ph.i, label %dissect_ngap_RAT_Information.exit, !llvm.loop !10

dissect_ngap_RAT_Information.exit:                ; preds = %.lr.ph.i, %ngap_get_private_data.exit.i, %23, %.preheader.i
  call void @llvm.lifetime.end.p0(i64 4, ptr nonnull %5) #12
  %54 = add i32 %21, 7
  %55 = ashr i32 %54, 3
  call void @llvm.lifetime.end.p0(i64 208, ptr nonnull %6) #12
  ret i32 %55
}